---
triple:          'arm64-apple-darwin'
binary-path:     '/Users/lydia/Desktop/CS_124/progset1/progset'
relocations:
  - { offsetInCU: 0x3F, offset: 0x3F, size: 0x8, addend: 0x0, symName: _rng, symObjAddr: 0x30920, symBinAddr: 0x10000C000, symSize: 0x0 }
  - { offsetInCU: 0x5AB4, offset: 0x5AB4, size: 0x8, addend: 0x0, symName: __ZNSt3__124__put_character_sequenceB7v160006IcNS_11char_traitsIcEEEERNS_13basic_ostreamIT_T0_EES7_PKS4_m, symObjAddr: 0x2E44, symBinAddr: 0x100006CA8, symSize: 0x1F4 }
  - { offsetInCU: 0x7AF8, offset: 0x7AF8, size: 0x8, addend: 0x0, symName: __ZNSt3__19make_pairB7v160006IRiRfEENS_4pairINS_18__unwrap_ref_decayIT_E4typeENS4_IT0_E4typeEEEOS5_OS8_, symObjAddr: 0x380, symBinAddr: 0x1000041E4, symSize: 0x34 }
  - { offsetInCU: 0x7B47, offset: 0x7B47, size: 0x8, addend: 0x0, symName: __ZNSt3__1lsB7v160006INS_11char_traitsIcEEEERNS_13basic_ostreamIcT_EES6_PKc, symObjAddr: 0x47C, symBinAddr: 0x1000042E0, symSize: 0x48 }
  - { offsetInCU: 0x7B8D, offset: 0x7B8D, size: 0x8, addend: 0x0, symName: __ZNSt3__14endlB7v160006IcNS_11char_traitsIcEEEERNS_13basic_ostreamIT_T0_EES7_, symObjAddr: 0x4F0, symBinAddr: 0x100004354, symSize: 0x58 }
  - { offsetInCU: 0x7BF1, offset: 0x7BF1, size: 0x8, addend: 0x0, symName: __ZNSt3__118generate_canonicalB7v160006IfLm24ENS_23mersenne_twister_engineIjLm32ELm624ELm397ELm31ELj2567483615ELm11ELj4294967295ELm7ELj2636928640ELm15ELj4022730752ELm18ELj1812433253EEEEET_RT1_, symObjAddr: 0x798, symBinAddr: 0x1000045FC, symSize: 0x110 }
  - { offsetInCU: 0x7CB7, offset: 0x7CB7, size: 0x8, addend: 0x0, symName: __ZNSt3__119__debug_db_insert_cB7v160006INS_6vectorINS1_INS_4pairIifEENS_9allocatorIS3_EEEENS4_IS6_EEEEEEvPT_, symObjAddr: 0xB0C, symBinAddr: 0x100004970, symSize: 0x10 }
  - { offsetInCU: 0x7CE8, offset: 0x7CE8, size: 0x8, addend: 0x0, symName: __ZNSt3__118__debug_db_erase_cB7v160006INS_6vectorINS1_INS_4pairIifEENS_9allocatorIS3_EEEENS4_IS6_EEEEEEvPT_, symObjAddr: 0xDE4, symBinAddr: 0x100004C48, symSize: 0x10 }
  - { offsetInCU: 0x7D19, offset: 0x7D19, size: 0x8, addend: 0x0, symName: __ZNSt3__112__to_addressB7v160006INS_6vectorINS_4pairIifEENS_9allocatorIS3_EEEEEEPT_S8_, symObjAddr: 0xF28, symBinAddr: 0x100004D8C, symSize: 0x14 }
  - { offsetInCU: 0x7D4E, offset: 0x7D4E, size: 0x8, addend: 0x0, symName: __ZNSt3__118__debug_db_erase_cB7v160006INS_6vectorINS_4pairIifEENS_9allocatorIS3_EEEEEEvPT_, symObjAddr: 0x1240, symBinAddr: 0x1000050A4, symSize: 0x10 }
  - { offsetInCU: 0x7D7F, offset: 0x7D7F, size: 0x8, addend: 0x0, symName: __ZNSt3__112__to_addressB7v160006INS_4pairIifEEEEPT_S4_, symObjAddr: 0x1384, symBinAddr: 0x1000051E8, symSize: 0x14 }
  - { offsetInCU: 0x7DB4, offset: 0x7DB4, size: 0x8, addend: 0x0, symName: __ZNSt3__130__libcpp_is_constant_evaluatedB7v160006Ev, symObjAddr: 0x14E8, symBinAddr: 0x10000534C, symSize: 0xC }
  - { offsetInCU: 0x7DD1, offset: 0x7DD1, size: 0x8, addend: 0x0, symName: __ZNSt3__119__libcpp_deallocateB7v160006EPvmm, symObjAddr: 0x14F4, symBinAddr: 0x100005358, symSize: 0x30 }
  - { offsetInCU: 0x7E19, offset: 0x7E19, size: 0x8, addend: 0x0, symName: __ZNSt3__127__do_deallocate_handle_sizeB7v160006IJEEEvPvmDpT_, symObjAddr: 0x1524, symBinAddr: 0x100005388, symSize: 0x28 }
  - { offsetInCU: 0x7E57, offset: 0x7E57, size: 0x8, addend: 0x0, symName: __ZNSt3__124__libcpp_operator_deleteB7v160006IJPvEEEvDpT_, symObjAddr: 0x154C, symBinAddr: 0x1000053B0, symSize: 0x24 }
  - { offsetInCU: 0x7E8C, offset: 0x7E8C, size: 0x8, addend: 0x0, symName: __ZNSt3__13maxB7v160006ImEERKT_S3_S3_, symObjAddr: 0x1D50, symBinAddr: 0x100005BB4, symSize: 0x2C }
  - { offsetInCU: 0x7ECF, offset: 0x7ECF, size: 0x8, addend: 0x0, symName: __ZNSt3__13minB7v160006ImEERKT_S3_S3_, symObjAddr: 0x1D7C, symBinAddr: 0x100005BE0, symSize: 0x2C }
  - { offsetInCU: 0x8113, offset: 0x8113, size: 0x8, addend: 0x0, symName: __ZNSt3__13minB7v160006ImNS_6__lessImmEEEERKT_S5_S5_T0_, symObjAddr: 0x1E08, symBinAddr: 0x100005C6C, symSize: 0x54 }
  - { offsetInCU: 0x81A8, offset: 0x81A8, size: 0x8, addend: 0x0, symName: __ZNSt3__120__throw_length_errorB7v160006EPKc, symObjAddr: 0x1EE4, symBinAddr: 0x100005D48, symSize: 0x64 }
  - { offsetInCU: 0x81D0, offset: 0x81D0, size: 0x8, addend: 0x0, symName: __ZNSt3__13maxB7v160006ImNS_6__lessImmEEEERKT_S5_S5_T0_, symObjAddr: 0x1FC8, symBinAddr: 0x100005E2C, symSize: 0x54 }
  - { offsetInCU: 0x822A, offset: 0x822A, size: 0x8, addend: 0x0, symName: __ZNSt3__119__allocate_at_leastB7v160006INS_9allocatorINS_4pairIifEEEEEENS_19__allocation_resultINS_16allocator_traitsIT_E7pointerEEERS7_m, symObjAddr: 0x212C, symBinAddr: 0x100005F90, symSize: 0x40 }
  - { offsetInCU: 0x826D, offset: 0x826D, size: 0x8, addend: 0x0, symName: __ZNSt3__117__libcpp_allocateB7v160006Emm, symObjAddr: 0x22F8, symBinAddr: 0x10000615C, symSize: 0x28 }
  - { offsetInCU: 0x82AA, offset: 0x82AA, size: 0x8, addend: 0x0, symName: __ZNSt3__121__libcpp_operator_newB7v160006IJmEEEPvDpT_, symObjAddr: 0x2320, symBinAddr: 0x100006184, symSize: 0x24 }
  - { offsetInCU: 0x82E3, offset: 0x82E3, size: 0x8, addend: 0x0, symName: __ZNSt3__142__uninitialized_allocator_move_if_noexceptB7v160006INS_9allocatorINS_4pairIifEEEENS_16reverse_iteratorIPS3_EES7_S7_EET2_RT_T0_T1_S8_, symObjAddr: 0x23A8, symBinAddr: 0x10000620C, symSize: 0x134 }
  - { offsetInCU: 0x8383, offset: 0x8383, size: 0x8, addend: 0x0, symName: __ZNSt3__14swapB7v160006IPNS_4pairIifEEEEvRT_S5_, symObjAddr: 0x2528, symBinAddr: 0x10000638C, symSize: 0x3C }
  - { offsetInCU: 0x83D4, offset: 0x83D4, size: 0x8, addend: 0x0, symName: __ZNSt3__125__debug_db_invalidate_allB7v160006INS_6vectorINS_4pairIifEENS_9allocatorIS3_EEEEEEvPT_, symObjAddr: 0x2610, symBinAddr: 0x100006474, symSize: 0x10 }
  - { offsetInCU: 0x8405, offset: 0x8405, size: 0x8, addend: 0x0, symName: __ZNSt3__122__make_exception_guardB7v160006INS_29_AllocatorDestroyRangeReverseINS_9allocatorINS_4pairIifEEEENS_16reverse_iteratorIPS4_EEEEEENS_28__exception_guard_exceptionsIT_EESB_, symObjAddr: 0x2620, symBinAddr: 0x100006484, symSize: 0x4C }
  - { offsetInCU: 0x843B, offset: 0x843B, size: 0x8, addend: 0x0, symName: __ZNSt3__1neB7v160006IPNS_4pairIifEES3_EEbRKNS_16reverse_iteratorIT_EERKNS4_IT0_EE, symObjAddr: 0x26B0, symBinAddr: 0x100006514, symSize: 0x48 }
  - { offsetInCU: 0x8487, offset: 0x8487, size: 0x8, addend: 0x0, symName: __ZNSt3__112__to_addressB7v160006INS_16reverse_iteratorIPNS_4pairIifEEEEvEENS_5decayIDTclsr19__to_address_helperIT_EE6__callclsr3stdE7declvalIRKS7_EEEEE4typeES9_, symObjAddr: 0x26F8, symBinAddr: 0x10000655C, symSize: 0x24 }
  - { offsetInCU: 0x84E6, offset: 0x84E6, size: 0x8, addend: 0x0, symName: __ZNSt3__119__allocator_destroyB7v160006INS_9allocatorINS_4pairIifEEEENS_16reverse_iteratorINS5_IPS3_EEEES8_EEvRT_T0_T1_, symObjAddr: 0x29B4, symBinAddr: 0x100006818, symSize: 0x70 }
  - { offsetInCU: 0x854B, offset: 0x854B, size: 0x8, addend: 0x0, symName: __ZNSt3__1neB7v160006INS_16reverse_iteratorIPNS_4pairIifEEEES5_EEbRKNS1_IT_EERKNS1_IT0_EE, symObjAddr: 0x2A60, symBinAddr: 0x1000068C4, symSize: 0x60 }
  - { offsetInCU: 0x8597, offset: 0x8597, size: 0x8, addend: 0x0, symName: __ZNSt3__112__to_addressB7v160006INS_16reverse_iteratorINS1_IPNS_4pairIifEEEEEEvEENS_5decayIDTclsr19__to_address_helperIT_EE6__callclsr3stdE7declvalIRKS8_EEEEE4typeESA_, symObjAddr: 0x2AC0, symBinAddr: 0x100006924, symSize: 0x24 }
  - { offsetInCU: 0x85F6, offset: 0x85F6, size: 0x8, addend: 0x0, symName: __ZNSt3__116__pad_and_outputB7v160006IcNS_11char_traitsIcEEEENS_19ostreambuf_iteratorIT_T0_EES6_PKS4_S8_S8_RNS_8ios_baseES4_, symObjAddr: 0x309C, symBinAddr: 0x100006F00, symSize: 0x248 }
  - { offsetInCU: 0x86C5, offset: 0x86C5, size: 0x8, addend: 0x0, symName: __ZNSt3__119__debug_db_insert_cB7v160006INS_12basic_stringIcNS_11char_traitsIcEENS_9allocatorIcEEEEEEvPT_, symObjAddr: 0x3558, symBinAddr: 0x1000073BC, symSize: 0x10 }
  - { offsetInCU: 0x86F6, offset: 0x86F6, size: 0x8, addend: 0x0, symName: __ZNSt3__112__to_addressB7v160006IKcEEPT_S3_, symObjAddr: 0x3624, symBinAddr: 0x100007488, symSize: 0x14 }
  - { offsetInCU: 0x875E, offset: 0x875E, size: 0x8, addend: 0x0, symName: __ZNSt3__19use_facetB7v160006INS_5ctypeIcEEEERKT_RKNS_6localeE, symObjAddr: 0x38FC, symBinAddr: 0x100007760, symSize: 0x2C }
  - { offsetInCU: 0x8C2D, offset: 0x8C2D, size: 0x8, addend: 0x0, symName: __ZNSt3__118__constexpr_strlenB7v160006EPKc, symObjAddr: 0x3994, symBinAddr: 0x1000077F8, symSize: 0x24 }
  - { offsetInCU: 0x8E06, offset: 0x8E06, size: 0x8, addend: 0x0, symName: __ZSt28__throw_bad_array_new_lengthB7v160006v, symObjAddr: 0x22C4, symBinAddr: 0x100006128, symSize: 0x34 }
  - { offsetInCU: 0x93D4, offset: 0x93D4, size: 0x8, addend: 0x0, symName: __ZNSt3__16vectorINS_4pairIifEENS_9allocatorIS2_EEE26__swap_out_circular_bufferERNS_14__split_bufferIS2_RS4_EE, symObjAddr: 0x1B7C, symBinAddr: 0x1000059E0, symSize: 0x118 }
  - { offsetInCU: 0xB772, offset: 0xB772, size: 0x8, addend: 0x0, symName: __ZNKSt3__16chrono10time_pointINS0_12steady_clockENS0_8durationIxNS_5ratioILl1ELl1000000000EEEEEE16time_since_epochB7v160006Ev, symObjAddr: 0x0, symBinAddr: 0x100003E64, symSize: 0x20 }
  - { offsetInCU: 0xB797, offset: 0xB797, size: 0x8, addend: 0x0, symName: __ZNKSt3__16chrono8durationIxNS_5ratioILl1ELl1000000000EEEE5countB7v160006Ev, symObjAddr: 0x20, symBinAddr: 0x100003E84, symSize: 0x18 }
  - { offsetInCU: 0xB7BC, offset: 0xB7BC, size: 0x8, addend: 0x0, symName: __ZNSt3__123mersenne_twister_engineIjLm32ELm624ELm397ELm31ELj2567483615ELm11ELj4294967295ELm7ELj2636928640ELm15ELj4022730752ELm18ELj1812433253EEC1B7v160006Ej, symObjAddr: 0x38, symBinAddr: 0x100003E9C, symSize: 0x34 }
  - { offsetInCU: 0xB7F2, offset: 0xB7F2, size: 0x8, addend: 0x0, symName: __Z11rand_weightv, symObjAddr: 0x6C, symBinAddr: 0x100003ED0, symSize: 0x40 }
  - { offsetInCU: 0xB842, offset: 0xB842, size: 0x8, addend: 0x0, symName: __ZNSt3__125uniform_real_distributionIfEC1B7v160006Eff, symObjAddr: 0xAC, symBinAddr: 0x100003F10, symSize: 0x3C }
  - { offsetInCU: 0xB88C, offset: 0xB88C, size: 0x8, addend: 0x0, symName: __ZNSt3__125uniform_real_distributionIfEclB7v160006INS_23mersenne_twister_engineIjLm32ELm624ELm397ELm31ELj2567483615ELm11ELj4294967295ELm7ELj2636928640ELm15ELj4022730752ELm18ELj1812433253EEEEEfRT_, symObjAddr: 0xE8, symBinAddr: 0x100003F4C, symSize: 0x30 }
  - { offsetInCU: 0xB8C7, offset: 0xB8C7, size: 0x8, addend: 0x0, symName: __Z13make_0d_graphi, symObjAddr: 0x118, symBinAddr: 0x100003F7C, symSize: 0x1A4 }
  - { offsetInCU: 0xB947, offset: 0xB947, size: 0x8, addend: 0x0, symName: __ZNSt3__16vectorINS0_INS_4pairIifEENS_9allocatorIS2_EEEENS3_IS5_EEEC1B7v160006Ev, symObjAddr: 0x2BC, symBinAddr: 0x100004120, symSize: 0x2C }
  - { offsetInCU: 0xB970, offset: 0xB970, size: 0x8, addend: 0x0, symName: __ZNSt3__16vectorINS0_INS_4pairIifEENS_9allocatorIS2_EEEENS3_IS5_EEEixB7v160006Em, symObjAddr: 0x2E8, symBinAddr: 0x10000414C, symSize: 0x2C }
  - { offsetInCU: 0xB9A5, offset: 0xB9A5, size: 0x8, addend: 0x0, symName: __ZNSt3__16vectorINS_4pairIifEENS_9allocatorIS2_EEE9push_backB7v160006EOS2_, symObjAddr: 0x314, symBinAddr: 0x100004178, symSize: 0x6C }
  - { offsetInCU: 0xB9DB, offset: 0xB9DB, size: 0x8, addend: 0x0, symName: __ZNSt3__16vectorINS0_INS_4pairIifEENS_9allocatorIS2_EEEENS3_IS5_EEED1B7v160006Ev, symObjAddr: 0x3B4, symBinAddr: 0x100004218, symSize: 0x2C }
  - { offsetInCU: 0xBA04, offset: 0xBA04, size: 0x8, addend: 0x0, symName: _main, symObjAddr: 0x3EC, symBinAddr: 0x100004250, symSize: 0x90 }
  - { offsetInCU: 0xBA2D, offset: 0xBA2D, size: 0x8, addend: 0x0, symName: __ZNSt3__113basic_ostreamIcNS_11char_traitsIcEEElsB7v160006EPFRS3_S4_E, symObjAddr: 0x4C4, symBinAddr: 0x100004328, symSize: 0x2C }
  - { offsetInCU: 0xBA60, offset: 0xBA60, size: 0x8, addend: 0x0, symName: __ZNSt3__123mersenne_twister_engineIjLm32ELm624ELm397ELm31ELj2567483615ELm11ELj4294967295ELm7ELj2636928640ELm15ELj4022730752ELm18ELj1812433253EEC2B7v160006Ej, symObjAddr: 0x548, symBinAddr: 0x1000043AC, symSize: 0x34 }
  - { offsetInCU: 0xBA96, offset: 0xBA96, size: 0x8, addend: 0x0, symName: __ZNSt3__123mersenne_twister_engineIjLm32ELm624ELm397ELm31ELj2567483615ELm11ELj4294967295ELm7ELj2636928640ELm15ELj4022730752ELm18ELj1812433253EE4seedEj, symObjAddr: 0x57C, symBinAddr: 0x1000043E0, symSize: 0xC4 }
  - { offsetInCU: 0xBAE8, offset: 0xBAE8, size: 0x8, addend: 0x0, symName: __ZNSt3__123mersenne_twister_engineIjLm32ELm624ELm397ELm31ELj2567483615ELm11ELj4294967295ELm7ELj2636928640ELm15ELj4022730752ELm18ELj1812433253EE8__rshiftB7v160006ILm30EEENS_9enable_ifIXltT_L_ZNS1_3_DtEEEjE4typeEj, symObjAddr: 0x640, symBinAddr: 0x1000044A4, symSize: 0x18 }
  - { offsetInCU: 0xBB15, offset: 0xBB15, size: 0x8, addend: 0x0, symName: __ZNSt3__125uniform_real_distributionIfEC2B7v160006Eff, symObjAddr: 0x658, symBinAddr: 0x1000044BC, symSize: 0x3C }
  - { offsetInCU: 0xBB5A, offset: 0xBB5A, size: 0x8, addend: 0x0, symName: __ZNSt3__125uniform_real_distributionIfE10param_typeC1B7v160006Eff, symObjAddr: 0x694, symBinAddr: 0x1000044F8, symSize: 0x3C }
  - { offsetInCU: 0xBB9F, offset: 0xBB9F, size: 0x8, addend: 0x0, symName: __ZNSt3__125uniform_real_distributionIfE10param_typeC2B7v160006Eff, symObjAddr: 0x6D0, symBinAddr: 0x100004534, symSize: 0x2C }
  - { offsetInCU: 0xBBE4, offset: 0xBBE4, size: 0x8, addend: 0x0, symName: __ZNSt3__125uniform_real_distributionIfEclINS_23mersenne_twister_engineIjLm32ELm624ELm397ELm31ELj2567483615ELm11ELj4294967295ELm7ELj2636928640ELm15ELj4022730752ELm18ELj1812433253EEEEEfRT_RKNS1_10param_typeE, symObjAddr: 0x6FC, symBinAddr: 0x100004560, symSize: 0x6C }
  - { offsetInCU: 0xBC2F, offset: 0xBC2F, size: 0x8, addend: 0x0, symName: __ZNKSt3__125uniform_real_distributionIfE10param_type1bB7v160006Ev, symObjAddr: 0x768, symBinAddr: 0x1000045CC, symSize: 0x18 }
  - { offsetInCU: 0xBC54, offset: 0xBC54, size: 0x8, addend: 0x0, symName: __ZNKSt3__125uniform_real_distributionIfE10param_type1aB7v160006Ev, symObjAddr: 0x780, symBinAddr: 0x1000045E4, symSize: 0x18 }
  - { offsetInCU: 0xBC79, offset: 0xBC79, size: 0x8, addend: 0x0, symName: __ZNSt3__123mersenne_twister_engineIjLm32ELm624ELm397ELm31ELj2567483615ELm11ELj4294967295ELm7ELj2636928640ELm15ELj4022730752ELm18ELj1812433253EE3maxB7v160006Ev, symObjAddr: 0x8A8, symBinAddr: 0x10000470C, symSize: 0x8 }
  - { offsetInCU: 0xBC8D, offset: 0xBC8D, size: 0x8, addend: 0x0, symName: __ZNSt3__123mersenne_twister_engineIjLm32ELm624ELm397ELm31ELj2567483615ELm11ELj4294967295ELm7ELj2636928640ELm15ELj4022730752ELm18ELj1812433253EE3minB7v160006Ev, symObjAddr: 0x8B0, symBinAddr: 0x100004714, symSize: 0x8 }
  - { offsetInCU: 0xBCA0, offset: 0xBCA0, size: 0x8, addend: 0x0, symName: __ZNSt3__123mersenne_twister_engineIjLm32ELm624ELm397ELm31ELj2567483615ELm11ELj4294967295ELm7ELj2636928640ELm15ELj4022730752ELm18ELj1812433253EEclEv, symObjAddr: 0x8B8, symBinAddr: 0x10000471C, symSize: 0x14C }
  - { offsetInCU: 0xBD12, offset: 0xBD12, size: 0x8, addend: 0x0, symName: __ZNSt3__123mersenne_twister_engineIjLm32ELm624ELm397ELm31ELj2567483615ELm11ELj4294967295ELm7ELj2636928640ELm15ELj4022730752ELm18ELj1812433253EE8__rshiftB7v160006ILm1EEENS_9enable_ifIXltT_L_ZNS1_3_DtEEEjE4typeEj, symObjAddr: 0xA04, symBinAddr: 0x100004868, symSize: 0x18 }
  - { offsetInCU: 0xBD3F, offset: 0xBD3F, size: 0x8, addend: 0x0, symName: __ZNSt3__123mersenne_twister_engineIjLm32ELm624ELm397ELm31ELj2567483615ELm11ELj4294967295ELm7ELj2636928640ELm15ELj4022730752ELm18ELj1812433253EE8__rshiftB7v160006ILm11EEENS_9enable_ifIXltT_L_ZNS1_3_DtEEEjE4typeEj, symObjAddr: 0xA1C, symBinAddr: 0x100004880, symSize: 0x18 }
  - { offsetInCU: 0xBD6C, offset: 0xBD6C, size: 0x8, addend: 0x0, symName: __ZNSt3__123mersenne_twister_engineIjLm32ELm624ELm397ELm31ELj2567483615ELm11ELj4294967295ELm7ELj2636928640ELm15ELj4022730752ELm18ELj1812433253EE8__lshiftB7v160006ILm7EEENS_9enable_ifIXltT_Lm32EEjE4typeEj, symObjAddr: 0xA34, symBinAddr: 0x100004898, symSize: 0x1C }
  - { offsetInCU: 0xBD99, offset: 0xBD99, size: 0x8, addend: 0x0, symName: __ZNSt3__123mersenne_twister_engineIjLm32ELm624ELm397ELm31ELj2567483615ELm11ELj4294967295ELm7ELj2636928640ELm15ELj4022730752ELm18ELj1812433253EE8__lshiftB7v160006ILm15EEENS_9enable_ifIXltT_Lm32EEjE4typeEj, symObjAddr: 0xA50, symBinAddr: 0x1000048B4, symSize: 0x1C }
  - { offsetInCU: 0xBDC6, offset: 0xBDC6, size: 0x8, addend: 0x0, symName: __ZNSt3__123mersenne_twister_engineIjLm32ELm624ELm397ELm31ELj2567483615ELm11ELj4294967295ELm7ELj2636928640ELm15ELj4022730752ELm18ELj1812433253EE8__rshiftB7v160006ILm18EEENS_9enable_ifIXltT_L_ZNS1_3_DtEEEjE4typeEj, symObjAddr: 0xA6C, symBinAddr: 0x1000048D0, symSize: 0x18 }
  - { offsetInCU: 0xBDF3, offset: 0xBDF3, size: 0x8, addend: 0x0, symName: __ZNSt3__16vectorINS0_INS_4pairIifEENS_9allocatorIS2_EEEENS3_IS5_EEEC2B7v160006Ev, symObjAddr: 0xA84, symBinAddr: 0x1000048E8, symSize: 0x4C }
  - { offsetInCU: 0xBE26, offset: 0xBE26, size: 0x8, addend: 0x0, symName: __ZNSt3__117__compressed_pairIPNS_6vectorINS_4pairIifEENS_9allocatorIS3_EEEENS4_IS6_EEEC1B7v160006IDnNS_18__default_init_tagEEEOT_OT0_, symObjAddr: 0xAD0, symBinAddr: 0x100004934, symSize: 0x3C }
  - { offsetInCU: 0xBE7D, offset: 0xBE7D, size: 0x8, addend: 0x0, symName: __ZNSt3__117__compressed_pairIPNS_6vectorINS_4pairIifEENS_9allocatorIS3_EEEENS4_IS6_EEEC2B7v160006IDnNS_18__default_init_tagEEEOT_OT0_, symObjAddr: 0xB1C, symBinAddr: 0x100004980, symSize: 0x40 }
  - { offsetInCU: 0xBED4, offset: 0xBED4, size: 0x8, addend: 0x0, symName: __ZNSt3__122__compressed_pair_elemIPNS_6vectorINS_4pairIifEENS_9allocatorIS3_EEEELi0ELb0EEC2B7v160006IDnvEEOT_, symObjAddr: 0xB5C, symBinAddr: 0x1000049C0, symSize: 0x1C }
  - { offsetInCU: 0xBF15, offset: 0xBF15, size: 0x8, addend: 0x0, symName: __ZNSt3__122__compressed_pair_elemINS_9allocatorINS_6vectorINS_4pairIifEENS1_IS4_EEEEEELi1ELb1EEC2B7v160006ENS_18__default_init_tagE, symObjAddr: 0xB78, symBinAddr: 0x1000049DC, symSize: 0x2C }
  - { offsetInCU: 0xBF49, offset: 0xBF49, size: 0x8, addend: 0x0, symName: __ZNSt3__19allocatorINS_6vectorINS_4pairIifEENS0_IS3_EEEEEC2B7v160006Ev, symObjAddr: 0xBA4, symBinAddr: 0x100004A08, symSize: 0x2C }
  - { offsetInCU: 0xBF72, offset: 0xBF72, size: 0x8, addend: 0x0, symName: __ZNSt3__116__non_trivial_ifILb1ENS_9allocatorINS_6vectorINS_4pairIifEENS1_IS4_EEEEEEEC2B7v160006Ev, symObjAddr: 0xBD0, symBinAddr: 0x100004A34, symSize: 0x14 }
  - { offsetInCU: 0xBF9B, offset: 0xBF9B, size: 0x8, addend: 0x0, symName: __ZNSt3__16vectorINS0_INS_4pairIifEENS_9allocatorIS2_EEEENS3_IS5_EEED2B7v160006Ev, symObjAddr: 0xBE4, symBinAddr: 0x100004A48, symSize: 0x3C }
  - { offsetInCU: 0xBFC4, offset: 0xBFC4, size: 0x8, addend: 0x0, symName: __ZNSt3__16vectorINS0_INS_4pairIifEENS_9allocatorIS2_EEEENS3_IS5_EEE16__destroy_vectorC1ERS7_, symObjAddr: 0xC20, symBinAddr: 0x100004A84, symSize: 0x34 }
  - { offsetInCU: 0xBFFC, offset: 0xBFFC, size: 0x8, addend: 0x0, symName: __ZNSt3__16vectorINS0_INS_4pairIifEENS_9allocatorIS2_EEEENS3_IS5_EEE16__destroy_vectorclB7v160006Ev, symObjAddr: 0xC54, symBinAddr: 0x100004AB8, symSize: 0x9C }
  - { offsetInCU: 0xC021, offset: 0xC021, size: 0x8, addend: 0x0, symName: __ZNSt3__16vectorINS0_INS_4pairIifEENS_9allocatorIS2_EEEENS3_IS5_EEE16__destroy_vectorC2ERS7_, symObjAddr: 0xCF0, symBinAddr: 0x100004B54, symSize: 0x20 }
  - { offsetInCU: 0xC059, offset: 0xC059, size: 0x8, addend: 0x0, symName: __ZNKSt3__16vectorINS0_INS_4pairIifEENS_9allocatorIS2_EEEENS3_IS5_EEE17__annotate_deleteB7v160006Ev, symObjAddr: 0xD10, symBinAddr: 0x100004B74, symSize: 0xD4 }
  - { offsetInCU: 0xC07E, offset: 0xC07E, size: 0x8, addend: 0x0, symName: __ZNSt3__16vectorINS0_INS_4pairIifEENS_9allocatorIS2_EEEENS3_IS5_EEE7__clearB7v160006Ev, symObjAddr: 0xDF4, symBinAddr: 0x100004C58, symSize: 0x28 }
  - { offsetInCU: 0xC0A3, offset: 0xC0A3, size: 0x8, addend: 0x0, symName: __ZNSt3__116allocator_traitsINS_9allocatorINS_6vectorINS_4pairIifEENS1_IS4_EEEEEEE10deallocateB7v160006ERS7_PS6_m, symObjAddr: 0xE1C, symBinAddr: 0x100004C80, symSize: 0x34 }
  - { offsetInCU: 0xC0E5, offset: 0xC0E5, size: 0x8, addend: 0x0, symName: __ZNSt3__16vectorINS0_INS_4pairIifEENS_9allocatorIS2_EEEENS3_IS5_EEE7__allocB7v160006Ev, symObjAddr: 0xE50, symBinAddr: 0x100004CB4, symSize: 0x28 }
  - { offsetInCU: 0xC10A, offset: 0xC10A, size: 0x8, addend: 0x0, symName: __ZNKSt3__16vectorINS0_INS_4pairIifEENS_9allocatorIS2_EEEENS3_IS5_EEE8capacityB7v160006Ev, symObjAddr: 0xE78, symBinAddr: 0x100004CDC, symSize: 0x40 }
  - { offsetInCU: 0xC12F, offset: 0xC12F, size: 0x8, addend: 0x0, symName: __ZNKSt3__16vectorINS0_INS_4pairIifEENS_9allocatorIS2_EEEENS3_IS5_EEE31__annotate_contiguous_containerB7v160006EPKvS9_S9_S9_, symObjAddr: 0xEB8, symBinAddr: 0x100004D1C, symSize: 0x20 }
  - { offsetInCU: 0xC184, offset: 0xC184, size: 0x8, addend: 0x0, symName: __ZNKSt3__16vectorINS0_INS_4pairIifEENS_9allocatorIS2_EEEENS3_IS5_EEE4dataB7v160006Ev, symObjAddr: 0xED8, symBinAddr: 0x100004D3C, symSize: 0x28 }
  - { offsetInCU: 0xC1A9, offset: 0xC1A9, size: 0x8, addend: 0x0, symName: __ZNKSt3__16vectorINS0_INS_4pairIifEENS_9allocatorIS2_EEEENS3_IS5_EEE4sizeB7v160006Ev, symObjAddr: 0xF00, symBinAddr: 0x100004D64, symSize: 0x28 }
  - { offsetInCU: 0xC1CE, offset: 0xC1CE, size: 0x8, addend: 0x0, symName: __ZNSt3__16vectorINS0_INS_4pairIifEENS_9allocatorIS2_EEEENS3_IS5_EEE22__base_destruct_at_endB7v160006EPS5_, symObjAddr: 0xF3C, symBinAddr: 0x100004DA0, symSize: 0xA0 }
  - { offsetInCU: 0xC211, offset: 0xC211, size: 0x8, addend: 0x0, symName: __ZNSt3__116allocator_traitsINS_9allocatorINS_6vectorINS_4pairIifEENS1_IS4_EEEEEEE7destroyB7v160006IS6_vEEvRS7_PT_, symObjAddr: 0xFDC, symBinAddr: 0x100004E40, symSize: 0x2C }
  - { offsetInCU: 0xC24E, offset: 0xC24E, size: 0x8, addend: 0x0, symName: __ZNSt3__19allocatorINS_6vectorINS_4pairIifEENS0_IS3_EEEEE7destroyB7v160006EPS5_, symObjAddr: 0x1008, symBinAddr: 0x100004E6C, symSize: 0x28 }
  - { offsetInCU: 0xC281, offset: 0xC281, size: 0x8, addend: 0x0, symName: __ZNSt3__16vectorINS_4pairIifEENS_9allocatorIS2_EEED1B7v160006Ev, symObjAddr: 0x1030, symBinAddr: 0x100004E94, symSize: 0x2C }
  - { offsetInCU: 0xC2AA, offset: 0xC2AA, size: 0x8, addend: 0x0, symName: __ZNSt3__16vectorINS_4pairIifEENS_9allocatorIS2_EEED2B7v160006Ev, symObjAddr: 0x105C, symBinAddr: 0x100004EC0, symSize: 0x3C }
  - { offsetInCU: 0xC2D3, offset: 0xC2D3, size: 0x8, addend: 0x0, symName: __ZNSt3__16vectorINS_4pairIifEENS_9allocatorIS2_EEE16__destroy_vectorC1ERS5_, symObjAddr: 0x1098, symBinAddr: 0x100004EFC, symSize: 0x34 }
  - { offsetInCU: 0xC30B, offset: 0xC30B, size: 0x8, addend: 0x0, symName: __ZNSt3__16vectorINS_4pairIifEENS_9allocatorIS2_EEE16__destroy_vectorclB7v160006Ev, symObjAddr: 0x10CC, symBinAddr: 0x100004F30, symSize: 0x9C }
  - { offsetInCU: 0xC330, offset: 0xC330, size: 0x8, addend: 0x0, symName: __ZNSt3__16vectorINS_4pairIifEENS_9allocatorIS2_EEE16__destroy_vectorC2ERS5_, symObjAddr: 0x1168, symBinAddr: 0x100004FCC, symSize: 0x20 }
  - { offsetInCU: 0xC368, offset: 0xC368, size: 0x8, addend: 0x0, symName: __ZNKSt3__16vectorINS_4pairIifEENS_9allocatorIS2_EEE17__annotate_deleteB7v160006Ev, symObjAddr: 0x1188, symBinAddr: 0x100004FEC, symSize: 0xB8 }
  - { offsetInCU: 0xC38D, offset: 0xC38D, size: 0x8, addend: 0x0, symName: __ZNSt3__16vectorINS_4pairIifEENS_9allocatorIS2_EEE7__clearB7v160006Ev, symObjAddr: 0x1250, symBinAddr: 0x1000050B4, symSize: 0x28 }
  - { offsetInCU: 0xC3B2, offset: 0xC3B2, size: 0x8, addend: 0x0, symName: __ZNSt3__116allocator_traitsINS_9allocatorINS_4pairIifEEEEE10deallocateB7v160006ERS4_PS3_m, symObjAddr: 0x1278, symBinAddr: 0x1000050DC, symSize: 0x34 }
  - { offsetInCU: 0xC3F4, offset: 0xC3F4, size: 0x8, addend: 0x0, symName: __ZNSt3__16vectorINS_4pairIifEENS_9allocatorIS2_EEE7__allocB7v160006Ev, symObjAddr: 0x12AC, symBinAddr: 0x100005110, symSize: 0x28 }
  - { offsetInCU: 0xC419, offset: 0xC419, size: 0x8, addend: 0x0, symName: __ZNKSt3__16vectorINS_4pairIifEENS_9allocatorIS2_EEE8capacityB7v160006Ev, symObjAddr: 0x12D4, symBinAddr: 0x100005138, symSize: 0x40 }
  - { offsetInCU: 0xC43E, offset: 0xC43E, size: 0x8, addend: 0x0, symName: __ZNKSt3__16vectorINS_4pairIifEENS_9allocatorIS2_EEE31__annotate_contiguous_containerB7v160006EPKvS7_S7_S7_, symObjAddr: 0x1314, symBinAddr: 0x100005178, symSize: 0x20 }
  - { offsetInCU: 0xC493, offset: 0xC493, size: 0x8, addend: 0x0, symName: __ZNKSt3__16vectorINS_4pairIifEENS_9allocatorIS2_EEE4dataB7v160006Ev, symObjAddr: 0x1334, symBinAddr: 0x100005198, symSize: 0x28 }
  - { offsetInCU: 0xC4B8, offset: 0xC4B8, size: 0x8, addend: 0x0, symName: __ZNKSt3__16vectorINS_4pairIifEENS_9allocatorIS2_EEE4sizeB7v160006Ev, symObjAddr: 0x135C, symBinAddr: 0x1000051C0, symSize: 0x28 }
  - { offsetInCU: 0xC4DD, offset: 0xC4DD, size: 0x8, addend: 0x0, symName: __ZNSt3__16vectorINS_4pairIifEENS_9allocatorIS2_EEE22__base_destruct_at_endB7v160006EPS2_, symObjAddr: 0x1398, symBinAddr: 0x1000051FC, symSize: 0xA0 }
  - { offsetInCU: 0xC520, offset: 0xC520, size: 0x8, addend: 0x0, symName: __ZNSt3__116allocator_traitsINS_9allocatorINS_4pairIifEEEEE7destroyB7v160006IS3_vEEvRS4_PT_, symObjAddr: 0x1438, symBinAddr: 0x10000529C, symSize: 0x2C }
  - { offsetInCU: 0xC55D, offset: 0xC55D, size: 0x8, addend: 0x0, symName: __ZNSt3__19allocatorINS_4pairIifEEE7destroyB7v160006EPS2_, symObjAddr: 0x1464, symBinAddr: 0x1000052C8, symSize: 0x14 }
  - { offsetInCU: 0xC590, offset: 0xC590, size: 0x8, addend: 0x0, symName: __ZNSt3__19allocatorINS_4pairIifEEE10deallocateB7v160006EPS2_m, symObjAddr: 0x1478, symBinAddr: 0x1000052DC, symSize: 0x70 }
  - { offsetInCU: 0xC5D1, offset: 0xC5D1, size: 0x8, addend: 0x0, symName: __ZNSt3__117__compressed_pairIPNS_4pairIifEENS_9allocatorIS2_EEE6secondB7v160006Ev, symObjAddr: 0x1570, symBinAddr: 0x1000053D4, symSize: 0x24 }
  - { offsetInCU: 0xC5F6, offset: 0xC5F6, size: 0x8, addend: 0x0, symName: __ZNSt3__122__compressed_pair_elemINS_9allocatorINS_4pairIifEEEELi1ELb1EE5__getB7v160006Ev, symObjAddr: 0x1594, symBinAddr: 0x1000053F8, symSize: 0x14 }
  - { offsetInCU: 0xC61B, offset: 0xC61B, size: 0x8, addend: 0x0, symName: __ZNKSt3__16vectorINS_4pairIifEENS_9allocatorIS2_EEE9__end_capB7v160006Ev, symObjAddr: 0x15A8, symBinAddr: 0x10000540C, symSize: 0x28 }
  - { offsetInCU: 0xC640, offset: 0xC640, size: 0x8, addend: 0x0, symName: __ZNKSt3__117__compressed_pairIPNS_4pairIifEENS_9allocatorIS2_EEE5firstB7v160006Ev, symObjAddr: 0x15D0, symBinAddr: 0x100005434, symSize: 0x24 }
  - { offsetInCU: 0xC665, offset: 0xC665, size: 0x8, addend: 0x0, symName: __ZNKSt3__122__compressed_pair_elemIPNS_4pairIifEELi0ELb0EE5__getB7v160006Ev, symObjAddr: 0x15F4, symBinAddr: 0x100005458, symSize: 0x14 }
  - { offsetInCU: 0xC68A, offset: 0xC68A, size: 0x8, addend: 0x0, symName: __ZNSt3__19allocatorINS_6vectorINS_4pairIifEENS0_IS3_EEEEE10deallocateB7v160006EPS5_m, symObjAddr: 0x1608, symBinAddr: 0x10000546C, symSize: 0x74 }
  - { offsetInCU: 0xC6CB, offset: 0xC6CB, size: 0x8, addend: 0x0, symName: __ZNSt3__117__compressed_pairIPNS_6vectorINS_4pairIifEENS_9allocatorIS3_EEEENS4_IS6_EEE6secondB7v160006Ev, symObjAddr: 0x167C, symBinAddr: 0x1000054E0, symSize: 0x24 }
  - { offsetInCU: 0xC6F0, offset: 0xC6F0, size: 0x8, addend: 0x0, symName: __ZNSt3__122__compressed_pair_elemINS_9allocatorINS_6vectorINS_4pairIifEENS1_IS4_EEEEEELi1ELb1EE5__getB7v160006Ev, symObjAddr: 0x16A0, symBinAddr: 0x100005504, symSize: 0x14 }
  - { offsetInCU: 0xC715, offset: 0xC715, size: 0x8, addend: 0x0, symName: __ZNKSt3__16vectorINS0_INS_4pairIifEENS_9allocatorIS2_EEEENS3_IS5_EEE9__end_capB7v160006Ev, symObjAddr: 0x16B4, symBinAddr: 0x100005518, symSize: 0x28 }
  - { offsetInCU: 0xC73A, offset: 0xC73A, size: 0x8, addend: 0x0, symName: __ZNKSt3__117__compressed_pairIPNS_6vectorINS_4pairIifEENS_9allocatorIS3_EEEENS4_IS6_EEE5firstB7v160006Ev, symObjAddr: 0x16DC, symBinAddr: 0x100005540, symSize: 0x24 }
  - { offsetInCU: 0xC75F, offset: 0xC75F, size: 0x8, addend: 0x0, symName: __ZNKSt3__122__compressed_pair_elemIPNS_6vectorINS_4pairIifEENS_9allocatorIS3_EEEELi0ELb0EE5__getB7v160006Ev, symObjAddr: 0x1700, symBinAddr: 0x100005564, symSize: 0x14 }
  - { offsetInCU: 0xC784, offset: 0xC784, size: 0x8, addend: 0x0, symName: __ZNSt3__14pairIifEC1B7v160006ERKiRKf, symObjAddr: 0x1714, symBinAddr: 0x100005578, symSize: 0x3C }
  - { offsetInCU: 0xC7C9, offset: 0xC7C9, size: 0x8, addend: 0x0, symName: __ZNSt3__14pairIifEC2B7v160006ERKiRKf, symObjAddr: 0x1750, symBinAddr: 0x1000055B4, symSize: 0x34 }
  - { offsetInCU: 0xC80E, offset: 0xC80E, size: 0x8, addend: 0x0, symName: __ZNSt3__16vectorINS_4pairIifEENS_9allocatorIS2_EEE9__end_capB7v160006Ev, symObjAddr: 0x1784, symBinAddr: 0x1000055E8, symSize: 0x28 }
  - { offsetInCU: 0xC833, offset: 0xC833, size: 0x8, addend: 0x0, symName: __ZNSt3__16vectorINS_4pairIifEENS_9allocatorIS2_EEE22__construct_one_at_endB7v160006IJS2_EEEvDpOT_, symObjAddr: 0x17AC, symBinAddr: 0x100005610, symSize: 0x98 }
  - { offsetInCU: 0xC880, offset: 0xC880, size: 0x8, addend: 0x0, symName: __ZNSt3__16vectorINS_4pairIifEENS_9allocatorIS2_EEE21__push_back_slow_pathIS2_EEvOT_, symObjAddr: 0x1844, symBinAddr: 0x1000056A8, symSize: 0xE0 }
  - { offsetInCU: 0xC8DD, offset: 0xC8DD, size: 0x8, addend: 0x0, symName: __ZNSt3__117__compressed_pairIPNS_4pairIifEENS_9allocatorIS2_EEE5firstB7v160006Ev, symObjAddr: 0x1924, symBinAddr: 0x100005788, symSize: 0x24 }
  - { offsetInCU: 0xC902, offset: 0xC902, size: 0x8, addend: 0x0, symName: __ZNSt3__122__compressed_pair_elemIPNS_4pairIifEELi0ELb0EE5__getB7v160006Ev, symObjAddr: 0x1948, symBinAddr: 0x1000057AC, symSize: 0x14 }
  - { offsetInCU: 0xC940, offset: 0xC940, size: 0x8, addend: 0x0, symName: __ZNSt3__16vectorINS_4pairIifEENS_9allocatorIS2_EEE21_ConstructTransactionC1B7v160006ERS5_m, symObjAddr: 0x195C, symBinAddr: 0x1000057C0, symSize: 0x3C }
  - { offsetInCU: 0xC987, offset: 0xC987, size: 0x8, addend: 0x0, symName: __ZNSt3__116allocator_traitsINS_9allocatorINS_4pairIifEEEEE9constructB7v160006IS3_JS3_EvEEvRS4_PT_DpOT0_, symObjAddr: 0x1998, symBinAddr: 0x1000057FC, symSize: 0x34 }
  - { offsetInCU: 0xC9DE, offset: 0xC9DE, size: 0x8, addend: 0x0, symName: __ZNSt3__16vectorINS_4pairIifEENS_9allocatorIS2_EEE21_ConstructTransactionD1B7v160006Ev, symObjAddr: 0x19CC, symBinAddr: 0x100005830, symSize: 0x2C }
  - { offsetInCU: 0xCA07, offset: 0xCA07, size: 0x8, addend: 0x0, symName: __ZNSt3__16vectorINS_4pairIifEENS_9allocatorIS2_EEE21_ConstructTransactionC2B7v160006ERS5_m, symObjAddr: 0x19F8, symBinAddr: 0x10000585C, symSize: 0x44 }
  - { offsetInCU: 0xCA4E, offset: 0xCA4E, size: 0x8, addend: 0x0, symName: __ZNSt3__19allocatorINS_4pairIifEEE9constructB7v160006IS2_JS2_EEEvPT_DpOT0_, symObjAddr: 0x1A3C, symBinAddr: 0x1000058A0, symSize: 0x28 }
  - { offsetInCU: 0xCAA3, offset: 0xCAA3, size: 0x8, addend: 0x0, symName: __ZNSt3__16vectorINS_4pairIifEENS_9allocatorIS2_EEE21_ConstructTransactionD2B7v160006Ev, symObjAddr: 0x1A64, symBinAddr: 0x1000058C8, symSize: 0x20 }
  - { offsetInCU: 0xCACB, offset: 0xCACB, size: 0x8, addend: 0x0, symName: __ZNKSt3__16vectorINS_4pairIifEENS_9allocatorIS2_EEE11__recommendB7v160006Em, symObjAddr: 0x1A84, symBinAddr: 0x1000058E8, symSize: 0xB4 }
  - { offsetInCU: 0xCB1F, offset: 0xCB1F, size: 0x8, addend: 0x0, symName: __ZNSt3__114__split_bufferINS_4pairIifEERNS_9allocatorIS2_EEEC1EmmS5_, symObjAddr: 0x1B38, symBinAddr: 0x10000599C, symSize: 0x44 }
  - { offsetInCU: 0xCB74, offset: 0xCB74, size: 0x8, addend: 0x0, symName: __ZNSt3__114__split_bufferINS_4pairIifEERNS_9allocatorIS2_EEED1Ev, symObjAddr: 0x1C94, symBinAddr: 0x100005AF8, symSize: 0x2C }
  - { offsetInCU: 0xCB9E, offset: 0xCB9E, size: 0x8, addend: 0x0, symName: __ZNKSt3__16vectorINS_4pairIifEENS_9allocatorIS2_EEE8max_sizeEv, symObjAddr: 0x1CC0, symBinAddr: 0x100005B24, symSize: 0x74 }
  - { offsetInCU: 0xCBC5, offset: 0xCBC5, size: 0x8, addend: 0x0, symName: __ZNKSt3__16vectorINS_4pairIifEENS_9allocatorIS2_EEE20__throw_length_errorB7v160006Ev, symObjAddr: 0x1D34, symBinAddr: 0x100005B98, symSize: 0x1C }
  - { offsetInCU: 0xCBF4, offset: 0xCBF4, size: 0x8, addend: 0x0, symName: __ZNSt3__116allocator_traitsINS_9allocatorINS_4pairIifEEEEE8max_sizeB7v160006IS4_vEEmRKS4_, symObjAddr: 0x1DA8, symBinAddr: 0x100005C0C, symSize: 0x24 }
  - { offsetInCU: 0xCC22, offset: 0xCC22, size: 0x8, addend: 0x0, symName: __ZNKSt3__16vectorINS_4pairIifEENS_9allocatorIS2_EEE7__allocB7v160006Ev, symObjAddr: 0x1DCC, symBinAddr: 0x100005C30, symSize: 0x28 }
  - { offsetInCU: 0xCC47, offset: 0xCC47, size: 0x8, addend: 0x0, symName: __ZNSt3__114numeric_limitsIlE3maxB7v160006Ev, symObjAddr: 0x1DF4, symBinAddr: 0x100005C58, symSize: 0x14 }
  - { offsetInCU: 0xCC6F, offset: 0xCC6F, size: 0x8, addend: 0x0, symName: __ZNKSt3__16__lessImmEclB7v160006ERKmS3_, symObjAddr: 0x1E5C, symBinAddr: 0x100005CC0, symSize: 0x34 }
  - { offsetInCU: 0xCCB0, offset: 0xCCB0, size: 0x8, addend: 0x0, symName: __ZNKSt3__19allocatorINS_4pairIifEEE8max_sizeB7v160006Ev, symObjAddr: 0x1E90, symBinAddr: 0x100005CF4, symSize: 0x14 }
  - { offsetInCU: 0xCCD5, offset: 0xCCD5, size: 0x8, addend: 0x0, symName: __ZNKSt3__117__compressed_pairIPNS_4pairIifEENS_9allocatorIS2_EEE6secondB7v160006Ev, symObjAddr: 0x1EA4, symBinAddr: 0x100005D08, symSize: 0x24 }
  - { offsetInCU: 0xCCFA, offset: 0xCCFA, size: 0x8, addend: 0x0, symName: __ZNKSt3__122__compressed_pair_elemINS_9allocatorINS_4pairIifEEEELi1ELb1EE5__getB7v160006Ev, symObjAddr: 0x1EC8, symBinAddr: 0x100005D2C, symSize: 0x14 }
  - { offsetInCU: 0xCD1F, offset: 0xCD1F, size: 0x8, addend: 0x0, symName: __ZNSt3__123__libcpp_numeric_limitsIlLb1EE3maxB7v160006Ev, symObjAddr: 0x1EDC, symBinAddr: 0x100005D40, symSize: 0x8 }
  - { offsetInCU: 0xCD33, offset: 0xCD33, size: 0x8, addend: 0x0, symName: __ZNSt12length_errorC1B7v160006EPKc, symObjAddr: 0x1F48, symBinAddr: 0x100005DAC, symSize: 0x34 }
  - { offsetInCU: 0xCD6A, offset: 0xCD6A, size: 0x8, addend: 0x0, symName: __ZNSt12length_errorC2B7v160006EPKc, symObjAddr: 0x1F7C, symBinAddr: 0x100005DE0, symSize: 0x4C }
  - { offsetInCU: 0xCDA1, offset: 0xCDA1, size: 0x8, addend: 0x0, symName: __ZNSt3__114__split_bufferINS_4pairIifEERNS_9allocatorIS2_EEEC2EmmS5_, symObjAddr: 0x201C, symBinAddr: 0x100005E80, symSize: 0xD4 }
  - { offsetInCU: 0xCE13, offset: 0xCE13, size: 0x8, addend: 0x0, symName: __ZNSt3__117__compressed_pairIPNS_4pairIifEERNS_9allocatorIS2_EEEC1B7v160006IDnS6_EEOT_OT0_, symObjAddr: 0x20F0, symBinAddr: 0x100005F54, symSize: 0x3C }
  - { offsetInCU: 0xCE6A, offset: 0xCE6A, size: 0x8, addend: 0x0, symName: __ZNSt3__114__split_bufferINS_4pairIifEERNS_9allocatorIS2_EEE7__allocB7v160006Ev, symObjAddr: 0x216C, symBinAddr: 0x100005FD0, symSize: 0x28 }
  - { offsetInCU: 0xCE8F, offset: 0xCE8F, size: 0x8, addend: 0x0, symName: __ZNSt3__114__split_bufferINS_4pairIifEERNS_9allocatorIS2_EEE9__end_capB7v160006Ev, symObjAddr: 0x2194, symBinAddr: 0x100005FF8, symSize: 0x28 }
  - { offsetInCU: 0xCEB4, offset: 0xCEB4, size: 0x8, addend: 0x0, symName: __ZNSt3__117__compressed_pairIPNS_4pairIifEERNS_9allocatorIS2_EEEC2B7v160006IDnS6_EEOT_OT0_, symObjAddr: 0x21BC, symBinAddr: 0x100006020, symSize: 0x48 }
  - { offsetInCU: 0xCF0B, offset: 0xCF0B, size: 0x8, addend: 0x0, symName: __ZNSt3__122__compressed_pair_elemIPNS_4pairIifEELi0ELb0EEC2B7v160006IDnvEEOT_, symObjAddr: 0x2204, symBinAddr: 0x100006068, symSize: 0x1C }
  - { offsetInCU: 0xCF4C, offset: 0xCF4C, size: 0x8, addend: 0x0, symName: __ZNSt3__122__compressed_pair_elemIRNS_9allocatorINS_4pairIifEEEELi1ELb0EEC2B7v160006IS5_vEEOT_, symObjAddr: 0x2220, symBinAddr: 0x100006084, symSize: 0x20 }
  - { offsetInCU: 0xCF8D, offset: 0xCF8D, size: 0x8, addend: 0x0, symName: __ZNSt3__19allocatorINS_4pairIifEEE8allocateB7v160006Em, symObjAddr: 0x2240, symBinAddr: 0x1000060A4, symSize: 0x84 }
  - { offsetInCU: 0xCFC0, offset: 0xCFC0, size: 0x8, addend: 0x0, symName: __ZNSt3__117__compressed_pairIPNS_4pairIifEERNS_9allocatorIS2_EEE6secondB7v160006Ev, symObjAddr: 0x2344, symBinAddr: 0x1000061A8, symSize: 0x28 }
  - { offsetInCU: 0xCFE5, offset: 0xCFE5, size: 0x8, addend: 0x0, symName: __ZNSt3__122__compressed_pair_elemIRNS_9allocatorINS_4pairIifEEEELi1ELb0EE5__getB7v160006Ev, symObjAddr: 0x236C, symBinAddr: 0x1000061D0, symSize: 0x18 }
  - { offsetInCU: 0xD00A, offset: 0xD00A, size: 0x8, addend: 0x0, symName: __ZNSt3__117__compressed_pairIPNS_4pairIifEERNS_9allocatorIS2_EEE5firstB7v160006Ev, symObjAddr: 0x2384, symBinAddr: 0x1000061E8, symSize: 0x24 }
  - { offsetInCU: 0xD02F, offset: 0xD02F, size: 0x8, addend: 0x0, symName: __ZNSt3__116reverse_iteratorIPNS_4pairIifEEEC1B7v160006ES3_, symObjAddr: 0x24DC, symBinAddr: 0x100006340, symSize: 0x34 }
  - { offsetInCU: 0xD066, offset: 0xD066, size: 0x8, addend: 0x0, symName: __ZNKSt3__116reverse_iteratorIPNS_4pairIifEEE4baseB7v160006Ev, symObjAddr: 0x2510, symBinAddr: 0x100006374, symSize: 0x18 }
  - { offsetInCU: 0xD08B, offset: 0xD08B, size: 0x8, addend: 0x0, symName: __ZNKSt3__16vectorINS_4pairIifEENS_9allocatorIS2_EEE14__annotate_newB7v160006Em, symObjAddr: 0x2564, symBinAddr: 0x1000063C8, symSize: 0xAC }
  - { offsetInCU: 0xD0BF, offset: 0xD0BF, size: 0x8, addend: 0x0, symName: __ZNSt3__129_AllocatorDestroyRangeReverseINS_9allocatorINS_4pairIifEEEENS_16reverse_iteratorIPS3_EEEC1B7v160006ERS4_RS7_SA_, symObjAddr: 0x266C, symBinAddr: 0x1000064D0, symSize: 0x44 }
  - { offsetInCU: 0xD115, offset: 0xD115, size: 0x8, addend: 0x0, symName: __ZNKSt3__116reverse_iteratorIPNS_4pairIifEEEdeB7v160006Ev, symObjAddr: 0x271C, symBinAddr: 0x100006580, symSize: 0x28 }
  - { offsetInCU: 0xD148, offset: 0xD148, size: 0x8, addend: 0x0, symName: __ZNSt3__116reverse_iteratorIPNS_4pairIifEEEppB7v160006Ev, symObjAddr: 0x2744, symBinAddr: 0x1000065A8, symSize: 0x20 }
  - { offsetInCU: 0xD16D, offset: 0xD16D, size: 0x8, addend: 0x0, symName: __ZNSt3__128__exception_guard_exceptionsINS_29_AllocatorDestroyRangeReverseINS_9allocatorINS_4pairIifEEEENS_16reverse_iteratorIPS4_EEEEE10__completeB7v160006Ev, symObjAddr: 0x2764, symBinAddr: 0x1000065C8, symSize: 0x1C }
  - { offsetInCU: 0xD192, offset: 0xD192, size: 0x8, addend: 0x0, symName: __ZNSt3__128__exception_guard_exceptionsINS_29_AllocatorDestroyRangeReverseINS_9allocatorINS_4pairIifEEEENS_16reverse_iteratorIPS4_EEEEED1B7v160006Ev, symObjAddr: 0x2780, symBinAddr: 0x1000065E4, symSize: 0x2C }
  - { offsetInCU: 0xD1BB, offset: 0xD1BB, size: 0x8, addend: 0x0, symName: __ZNSt3__128__exception_guard_exceptionsINS_29_AllocatorDestroyRangeReverseINS_9allocatorINS_4pairIifEEEENS_16reverse_iteratorIPS4_EEEEEC1B7v160006ES9_, symObjAddr: 0x27AC, symBinAddr: 0x100006610, symSize: 0x34 }
  - { offsetInCU: 0xD1F3, offset: 0xD1F3, size: 0x8, addend: 0x0, symName: __ZNSt3__128__exception_guard_exceptionsINS_29_AllocatorDestroyRangeReverseINS_9allocatorINS_4pairIifEEEENS_16reverse_iteratorIPS4_EEEEEC2B7v160006ES9_, symObjAddr: 0x27E0, symBinAddr: 0x100006644, symSize: 0x30 }
  - { offsetInCU: 0xD22B, offset: 0xD22B, size: 0x8, addend: 0x0, symName: __ZNSt3__129_AllocatorDestroyRangeReverseINS_9allocatorINS_4pairIifEEEENS_16reverse_iteratorIPS3_EEEC2B7v160006ERS4_RS7_SA_, symObjAddr: 0x2810, symBinAddr: 0x100006674, symSize: 0x38 }
  - { offsetInCU: 0xD286, offset: 0xD286, size: 0x8, addend: 0x0, symName: __ZNSt3__119__to_address_helperINS_16reverse_iteratorIPNS_4pairIifEEEEvE6__callB7v160006ERKS5_, symObjAddr: 0x2848, symBinAddr: 0x1000066AC, symSize: 0x4C }
  - { offsetInCU: 0xD2A9, offset: 0xD2A9, size: 0x8, addend: 0x0, symName: __ZNKSt3__116reverse_iteratorIPNS_4pairIifEEEptB7v160006Ev, symObjAddr: 0x2894, symBinAddr: 0x1000066F8, symSize: 0x24 }
  - { offsetInCU: 0xD2CE, offset: 0xD2CE, size: 0x8, addend: 0x0, symName: __ZNSt3__128__exception_guard_exceptionsINS_29_AllocatorDestroyRangeReverseINS_9allocatorINS_4pairIifEEEENS_16reverse_iteratorIPS4_EEEEED2B7v160006Ev, symObjAddr: 0x28B8, symBinAddr: 0x10000671C, symSize: 0x48 }
  - { offsetInCU: 0xD2F7, offset: 0xD2F7, size: 0x8, addend: 0x0, symName: __ZNKSt3__129_AllocatorDestroyRangeReverseINS_9allocatorINS_4pairIifEEEENS_16reverse_iteratorIPS3_EEEclB7v160006Ev, symObjAddr: 0x2900, symBinAddr: 0x100006764, symSize: 0xB4 }
  - { offsetInCU: 0xD31D, offset: 0xD31D, size: 0x8, addend: 0x0, symName: __ZNSt3__116reverse_iteratorINS0_IPNS_4pairIifEEEEEC1B7v160006ES4_, symObjAddr: 0x2A24, symBinAddr: 0x100006888, symSize: 0x3C }
  - { offsetInCU: 0xD354, offset: 0xD354, size: 0x8, addend: 0x0, symName: __ZNSt3__116reverse_iteratorINS0_IPNS_4pairIifEEEEEppB7v160006Ev, symObjAddr: 0x2AE4, symBinAddr: 0x100006948, symSize: 0x30 }
  - { offsetInCU: 0xD379, offset: 0xD379, size: 0x8, addend: 0x0, symName: __ZNKSt3__116reverse_iteratorINS0_IPNS_4pairIifEEEEE4baseB7v160006Ev, symObjAddr: 0x2B14, symBinAddr: 0x100006978, symSize: 0x24 }
  - { offsetInCU: 0xD3A3, offset: 0xD3A3, size: 0x8, addend: 0x0, symName: __ZNSt3__119__to_address_helperINS_16reverse_iteratorINS1_IPNS_4pairIifEEEEEEvE6__callB7v160006ERKS6_, symObjAddr: 0x2B38, symBinAddr: 0x10000699C, symSize: 0x4C }
  - { offsetInCU: 0xD3C6, offset: 0xD3C6, size: 0x8, addend: 0x0, symName: __ZNKSt3__116reverse_iteratorINS0_IPNS_4pairIifEEEEEptB7v160006Ev, symObjAddr: 0x2B84, symBinAddr: 0x1000069E8, symSize: 0x24 }
  - { offsetInCU: 0xD3EB, offset: 0xD3EB, size: 0x8, addend: 0x0, symName: __ZNKSt3__116reverse_iteratorINS0_IPNS_4pairIifEEEEEdeB7v160006Ev, symObjAddr: 0x2BA8, symBinAddr: 0x100006A0C, symSize: 0x34 }
  - { offsetInCU: 0xD41E, offset: 0xD41E, size: 0x8, addend: 0x0, symName: __ZNSt3__116reverse_iteratorIPNS_4pairIifEEEmmB7v160006Ev, symObjAddr: 0x2BDC, symBinAddr: 0x100006A40, symSize: 0x20 }
  - { offsetInCU: 0xD443, offset: 0xD443, size: 0x8, addend: 0x0, symName: __ZNSt3__116reverse_iteratorINS0_IPNS_4pairIifEEEEEC2B7v160006ES4_, symObjAddr: 0x2BFC, symBinAddr: 0x100006A60, symSize: 0x2C }
  - { offsetInCU: 0xD47A, offset: 0xD47A, size: 0x8, addend: 0x0, symName: __ZNSt3__116reverse_iteratorIPNS_4pairIifEEEC2B7v160006ES3_, symObjAddr: 0x2C28, symBinAddr: 0x100006A8C, symSize: 0x28 }
  - { offsetInCU: 0xD4B1, offset: 0xD4B1, size: 0x8, addend: 0x0, symName: __ZNSt3__114__split_bufferINS_4pairIifEERNS_9allocatorIS2_EEED2Ev, symObjAddr: 0x2C50, symBinAddr: 0x100006AB4, symSize: 0x80 }
  - { offsetInCU: 0xD4DC, offset: 0xD4DC, size: 0x8, addend: 0x0, symName: __ZNSt3__114__split_bufferINS_4pairIifEERNS_9allocatorIS2_EEE5clearB7v160006Ev, symObjAddr: 0x2CD0, symBinAddr: 0x100006B34, symSize: 0x28 }
  - { offsetInCU: 0xD501, offset: 0xD501, size: 0x8, addend: 0x0, symName: __ZNKSt3__114__split_bufferINS_4pairIifEERNS_9allocatorIS2_EEE8capacityB7v160006Ev, symObjAddr: 0x2CF8, symBinAddr: 0x100006B5C, symSize: 0x40 }
  - { offsetInCU: 0xD526, offset: 0xD526, size: 0x8, addend: 0x0, symName: __ZNSt3__114__split_bufferINS_4pairIifEERNS_9allocatorIS2_EEE17__destruct_at_endB7v160006EPS2_, symObjAddr: 0x2D38, symBinAddr: 0x100006B9C, symSize: 0x2C }
  - { offsetInCU: 0xD558, offset: 0xD558, size: 0x8, addend: 0x0, symName: __ZNSt3__114__split_bufferINS_4pairIifEERNS_9allocatorIS2_EEE17__destruct_at_endB7v160006EPS2_NS_17integral_constantIbLb0EEE, symObjAddr: 0x2D64, symBinAddr: 0x100006BC8, symSize: 0x94 }
  - { offsetInCU: 0xD598, offset: 0xD598, size: 0x8, addend: 0x0, symName: __ZNKSt3__114__split_bufferINS_4pairIifEERNS_9allocatorIS2_EEE9__end_capB7v160006Ev, symObjAddr: 0x2DF8, symBinAddr: 0x100006C5C, symSize: 0x28 }
  - { offsetInCU: 0xD5BD, offset: 0xD5BD, size: 0x8, addend: 0x0, symName: __ZNKSt3__117__compressed_pairIPNS_4pairIifEERNS_9allocatorIS2_EEE5firstB7v160006Ev, symObjAddr: 0x2E20, symBinAddr: 0x100006C84, symSize: 0x24 }
  - { offsetInCU: 0xD5E2, offset: 0xD5E2, size: 0x8, addend: 0x0, symName: __ZNSt3__111char_traitsIcE6lengthEPKc, symObjAddr: 0x3038, symBinAddr: 0x100006E9C, symSize: 0x48 }
  - { offsetInCU: 0xD623, offset: 0xD623, size: 0x8, addend: 0x0, symName: __ZNKSt3__113basic_ostreamIcNS_11char_traitsIcEEE6sentrycvbB7v160006Ev, symObjAddr: 0x3080, symBinAddr: 0x100006EE4, symSize: 0x1C }
  - { offsetInCU: 0xD648, offset: 0xD648, size: 0x8, addend: 0x0, symName: __ZNSt3__119ostreambuf_iteratorIcNS_11char_traitsIcEEEC1B7v160006ERNS_13basic_ostreamIcS2_EE, symObjAddr: 0x32E4, symBinAddr: 0x100007148, symSize: 0x34 }
  - { offsetInCU: 0xD67F, offset: 0xD67F, size: 0x8, addend: 0x0, symName: __ZNKSt3__18ios_base5flagsB7v160006Ev, symObjAddr: 0x3318, symBinAddr: 0x10000717C, symSize: 0x18 }
  - { offsetInCU: 0xD6A5, offset: 0xD6A5, size: 0x8, addend: 0x0, symName: __ZNKSt3__19basic_iosIcNS_11char_traitsIcEEE4fillB7v160006Ev, symObjAddr: 0x3330, symBinAddr: 0x100007194, symSize: 0x64 }
  - { offsetInCU: 0xD6CC, offset: 0xD6CC, size: 0x8, addend: 0x0, symName: __ZNKSt3__119ostreambuf_iteratorIcNS_11char_traitsIcEEE6failedB7v160006Ev, symObjAddr: 0x3394, symBinAddr: 0x1000071F8, symSize: 0x24 }
  - { offsetInCU: 0xD6F1, offset: 0xD6F1, size: 0x8, addend: 0x0, symName: __ZNSt3__19basic_iosIcNS_11char_traitsIcEEE8setstateB7v160006Ej, symObjAddr: 0x33B8, symBinAddr: 0x10000721C, symSize: 0x2C }
  - { offsetInCU: 0xD725, offset: 0xD725, size: 0x8, addend: 0x0, symName: __ZNKSt3__18ios_base5widthB7v160006Ev, symObjAddr: 0x33E4, symBinAddr: 0x100007248, symSize: 0x18 }
  - { offsetInCU: 0xD74C, offset: 0xD74C, size: 0x8, addend: 0x0, symName: __ZNSt3__115basic_streambufIcNS_11char_traitsIcEEE5sputnB7v160006EPKcl, symObjAddr: 0x33FC, symBinAddr: 0x100007260, symSize: 0x3C }
  - { offsetInCU: 0xD78D, offset: 0xD78D, size: 0x8, addend: 0x0, symName: __ZNSt3__112basic_stringIcNS_11char_traitsIcEENS_9allocatorIcEEEC1B7v160006Emc, symObjAddr: 0x3438, symBinAddr: 0x10000729C, symSize: 0x3C }
  - { offsetInCU: 0xD7D4, offset: 0xD7D4, size: 0x8, addend: 0x0, symName: __ZNKSt3__112basic_stringIcNS_11char_traitsIcEENS_9allocatorIcEEE4dataB7v160006Ev, symObjAddr: 0x3474, symBinAddr: 0x1000072D8, symSize: 0x28 }
  - { offsetInCU: 0xD7F9, offset: 0xD7F9, size: 0x8, addend: 0x0, symName: __ZNSt3__18ios_base5widthB7v160006El, symObjAddr: 0x349C, symBinAddr: 0x100007300, symSize: 0x2C }
  - { offsetInCU: 0xD83E, offset: 0xD83E, size: 0x8, addend: 0x0, symName: __ZNSt3__112basic_stringIcNS_11char_traitsIcEENS_9allocatorIcEEEC2B7v160006Emc, symObjAddr: 0x34C8, symBinAddr: 0x10000732C, symSize: 0x54 }
  - { offsetInCU: 0xD885, offset: 0xD885, size: 0x8, addend: 0x0, symName: __ZNSt3__117__compressed_pairINS_12basic_stringIcNS_11char_traitsIcEENS_9allocatorIcEEE5__repES5_EC1B7v160006INS_18__default_init_tagESA_EEOT_OT0_, symObjAddr: 0x351C, symBinAddr: 0x100007380, symSize: 0x3C }
  - { offsetInCU: 0xD8DC, offset: 0xD8DC, size: 0x8, addend: 0x0, symName: __ZNSt3__117__compressed_pairINS_12basic_stringIcNS_11char_traitsIcEENS_9allocatorIcEEE5__repES5_EC2B7v160006INS_18__default_init_tagESA_EEOT_OT0_, symObjAddr: 0x3568, symBinAddr: 0x1000073CC, symSize: 0x3C }
  - { offsetInCU: 0xD933, offset: 0xD933, size: 0x8, addend: 0x0, symName: __ZNSt3__122__compressed_pair_elemINS_12basic_stringIcNS_11char_traitsIcEENS_9allocatorIcEEE5__repELi0ELb0EEC2B7v160006ENS_18__default_init_tagE, symObjAddr: 0x35A4, symBinAddr: 0x100007408, symSize: 0x14 }
  - { offsetInCU: 0xD967, offset: 0xD967, size: 0x8, addend: 0x0, symName: __ZNSt3__122__compressed_pair_elemINS_9allocatorIcEELi1ELb1EEC2B7v160006ENS_18__default_init_tagE, symObjAddr: 0x35B8, symBinAddr: 0x10000741C, symSize: 0x2C }
  - { offsetInCU: 0xD99B, offset: 0xD99B, size: 0x8, addend: 0x0, symName: __ZNSt3__19allocatorIcEC2B7v160006Ev, symObjAddr: 0x35E4, symBinAddr: 0x100007448, symSize: 0x2C }
  - { offsetInCU: 0xD9C4, offset: 0xD9C4, size: 0x8, addend: 0x0, symName: __ZNSt3__116__non_trivial_ifILb1ENS_9allocatorIcEEEC2B7v160006Ev, symObjAddr: 0x3610, symBinAddr: 0x100007474, symSize: 0x14 }
  - { offsetInCU: 0xD9ED, offset: 0xD9ED, size: 0x8, addend: 0x0, symName: __ZNKSt3__112basic_stringIcNS_11char_traitsIcEENS_9allocatorIcEEE13__get_pointerB7v160006Ev, symObjAddr: 0x3638, symBinAddr: 0x10000749C, symSize: 0x54 }
  - { offsetInCU: 0xDA12, offset: 0xDA12, size: 0x8, addend: 0x0, symName: __ZNKSt3__112basic_stringIcNS_11char_traitsIcEENS_9allocatorIcEEE9__is_longB7v160006Ev, symObjAddr: 0x368C, symBinAddr: 0x1000074F0, symSize: 0x74 }
  - { offsetInCU: 0xDA37, offset: 0xDA37, size: 0x8, addend: 0x0, symName: __ZNKSt3__112basic_stringIcNS_11char_traitsIcEENS_9allocatorIcEEE18__get_long_pointerB7v160006Ev, symObjAddr: 0x3700, symBinAddr: 0x100007564, symSize: 0x28 }
  - { offsetInCU: 0xDA5C, offset: 0xDA5C, size: 0x8, addend: 0x0, symName: __ZNKSt3__112basic_stringIcNS_11char_traitsIcEENS_9allocatorIcEEE19__get_short_pointerB7v160006Ev, symObjAddr: 0x3728, symBinAddr: 0x10000758C, symSize: 0x28 }
  - { offsetInCU: 0xDA81, offset: 0xDA81, size: 0x8, addend: 0x0, symName: __ZNKSt3__117__compressed_pairINS_12basic_stringIcNS_11char_traitsIcEENS_9allocatorIcEEE5__repES5_E5firstB7v160006Ev, symObjAddr: 0x3750, symBinAddr: 0x1000075B4, symSize: 0x24 }
  - { offsetInCU: 0xDAA6, offset: 0xDAA6, size: 0x8, addend: 0x0, symName: __ZNKSt3__122__compressed_pair_elemINS_12basic_stringIcNS_11char_traitsIcEENS_9allocatorIcEEE5__repELi0ELb0EE5__getB7v160006Ev, symObjAddr: 0x3774, symBinAddr: 0x1000075D8, symSize: 0x14 }
  - { offsetInCU: 0xDACB, offset: 0xDACB, size: 0x8, addend: 0x0, symName: __ZNSt3__114pointer_traitsIPKcE10pointer_toB7v160006ERS1_, symObjAddr: 0x3788, symBinAddr: 0x1000075EC, symSize: 0x14 }
  - { offsetInCU: 0xDAEE, offset: 0xDAEE, size: 0x8, addend: 0x0, symName: __ZNSt3__119ostreambuf_iteratorIcNS_11char_traitsIcEEEC2B7v160006ERNS_13basic_ostreamIcS2_EE, symObjAddr: 0x379C, symBinAddr: 0x100007600, symSize: 0x68 }
  - { offsetInCU: 0xDB24, offset: 0xDB24, size: 0x8, addend: 0x0, symName: __ZNKSt3__19basic_iosIcNS_11char_traitsIcEEE5rdbufB7v160006Ev, symObjAddr: 0x3804, symBinAddr: 0x100007668, symSize: 0x24 }
  - { offsetInCU: 0xDB4B, offset: 0xDB4B, size: 0x8, addend: 0x0, symName: __ZNKSt3__18ios_base5rdbufB7v160006Ev, symObjAddr: 0x3828, symBinAddr: 0x10000768C, symSize: 0x18 }
  - { offsetInCU: 0xDB70, offset: 0xDB70, size: 0x8, addend: 0x0, symName: __ZNSt3__111char_traitsIcE11eq_int_typeEii, symObjAddr: 0x3840, symBinAddr: 0x1000076A4, symSize: 0x28 }
  - { offsetInCU: 0xDBA1, offset: 0xDBA1, size: 0x8, addend: 0x0, symName: __ZNSt3__111char_traitsIcE3eofEv, symObjAddr: 0x3868, symBinAddr: 0x1000076CC, symSize: 0x8 }
  - { offsetInCU: 0xDBB4, offset: 0xDBB4, size: 0x8, addend: 0x0, symName: __ZNKSt3__19basic_iosIcNS_11char_traitsIcEEE5widenB7v160006Ec, symObjAddr: 0x3870, symBinAddr: 0x1000076D4, symSize: 0x8C }
  - { offsetInCU: 0xDC1C, offset: 0xDC1C, size: 0x8, addend: 0x0, symName: __ZNKSt3__15ctypeIcE5widenB7v160006Ec, symObjAddr: 0x3928, symBinAddr: 0x10000778C, symSize: 0x38 }
  - { offsetInCU: 0xDC4F, offset: 0xDC4F, size: 0x8, addend: 0x0, symName: __ZNSt3__18ios_base8setstateB7v160006Ej, symObjAddr: 0x3960, symBinAddr: 0x1000077C4, symSize: 0x34 }
...
